
f303xx_drivers.elf:     file format elf32-littlearm

Sections:
Idx Name          Size      VMA       LMA       File off  Algn
  0 .isr_vector   00000194  08000000  08000000  00010000  2**0
                  CONTENTS, ALLOC, LOAD, READONLY, DATA
  1 .text         0000084c  08000194  08000194  00010194  2**2
                  CONTENTS, ALLOC, LOAD, READONLY, CODE
  2 .rodata       00000010  080009e0  080009e0  000109e0  2**2
                  CONTENTS, ALLOC, LOAD, READONLY, DATA
  3 .ARM.extab    00000000  080009f0  080009f0  000109f8  2**0
                  CONTENTS
  4 .ARM          00000000  080009f0  080009f0  000109f8  2**0
                  CONTENTS
  5 .preinit_array 00000000  080009f0  080009f8  000109f8  2**0
                  CONTENTS, ALLOC, LOAD, DATA
  6 .init_array   00000004  080009f0  080009f0  000109f0  2**2
                  CONTENTS, ALLOC, LOAD, DATA
  7 .fini_array   00000004  080009f4  080009f4  000109f4  2**2
                  CONTENTS, ALLOC, LOAD, DATA
  8 .data         00000000  20000000  20000000  000109f8  2**0
                  CONTENTS, ALLOC, LOAD, DATA
  9 .ccmram       00000000  10000000  10000000  000109f8  2**0
                  CONTENTS
 10 .bss          0000001c  20000000  20000000  00020000  2**2
                  ALLOC
 11 ._user_heap_stack 00000604  2000001c  2000001c  00020000  2**0
                  ALLOC
 12 .ARM.attributes 00000030  00000000  00000000  000109f8  2**0
                  CONTENTS, READONLY
 13 .debug_info   00001039  00000000  00000000  00010a28  2**0
                  CONTENTS, READONLY, DEBUGGING, OCTETS
 14 .debug_abbrev 0000036a  00000000  00000000  00011a61  2**0
                  CONTENTS, READONLY, DEBUGGING, OCTETS
 15 .debug_aranges 00000138  00000000  00000000  00011dd0  2**3
                  CONTENTS, READONLY, DEBUGGING, OCTETS
 16 .debug_ranges 00000100  00000000  00000000  00011f08  2**3
                  CONTENTS, READONLY, DEBUGGING, OCTETS
 17 .debug_macro  00001e83  00000000  00000000  00012008  2**0
                  CONTENTS, READONLY, DEBUGGING, OCTETS
 18 .debug_line   00001549  00000000  00000000  00013e8b  2**0
                  CONTENTS, READONLY, DEBUGGING, OCTETS
 19 .debug_str    00008721  00000000  00000000  000153d4  2**0
                  CONTENTS, READONLY, DEBUGGING, OCTETS
 20 .comment      00000050  00000000  00000000  0001daf5  2**0
                  CONTENTS, READONLY
 21 .debug_frame  0000042c  00000000  00000000  0001db48  2**2
                  CONTENTS, READONLY, DEBUGGING, OCTETS

Disassembly of section .text:

08000194 <__do_global_dtors_aux>:
 8000194:	b510      	push	{r4, lr}
 8000196:	4c05      	ldr	r4, [pc, #20]	; (80001ac <__do_global_dtors_aux+0x18>)
 8000198:	7823      	ldrb	r3, [r4, #0]
 800019a:	b933      	cbnz	r3, 80001aa <__do_global_dtors_aux+0x16>
 800019c:	4b04      	ldr	r3, [pc, #16]	; (80001b0 <__do_global_dtors_aux+0x1c>)
 800019e:	b113      	cbz	r3, 80001a6 <__do_global_dtors_aux+0x12>
 80001a0:	4804      	ldr	r0, [pc, #16]	; (80001b4 <__do_global_dtors_aux+0x20>)
 80001a2:	f3af 8000 	nop.w
 80001a6:	2301      	movs	r3, #1
 80001a8:	7023      	strb	r3, [r4, #0]
 80001aa:	bd10      	pop	{r4, pc}
 80001ac:	20000000 	.word	0x20000000
 80001b0:	00000000 	.word	0x00000000
 80001b4:	080009c8 	.word	0x080009c8

080001b8 <frame_dummy>:
 80001b8:	b508      	push	{r3, lr}
 80001ba:	4b03      	ldr	r3, [pc, #12]	; (80001c8 <frame_dummy+0x10>)
 80001bc:	b11b      	cbz	r3, 80001c6 <frame_dummy+0xe>
 80001be:	4903      	ldr	r1, [pc, #12]	; (80001cc <frame_dummy+0x14>)
 80001c0:	4803      	ldr	r0, [pc, #12]	; (80001d0 <frame_dummy+0x18>)
 80001c2:	f3af 8000 	nop.w
 80001c6:	bd08      	pop	{r3, pc}
 80001c8:	00000000 	.word	0x00000000
 80001cc:	20000004 	.word	0x20000004
 80001d0:	080009c8 	.word	0x080009c8

080001d4 <strlen>:
 80001d4:	4603      	mov	r3, r0
 80001d6:	f813 2b01 	ldrb.w	r2, [r3], #1
 80001da:	2a00      	cmp	r2, #0
 80001dc:	d1fb      	bne.n	80001d6 <strlen+0x2>
 80001de:	1a18      	subs	r0, r3, r0
 80001e0:	3801      	subs	r0, #1
 80001e2:	4770      	bx	lr

080001e4 <SPI2_GPIOInit>:

#include "stm32f303xx.h"
#include <string.h>

// this function is used to initialize the GPIO pins to behave as SPI2 pins
void SPI2_GPIOInit(void) {
 80001e4:	b580      	push	{r7, lr}
 80001e6:	b084      	sub	sp, #16
 80001e8:	af00      	add	r7, sp, #0
	GPIO_Handle_t SPIPins;
	SPIPins.pGPIOX = GPIOB;
 80001ea:	4b14      	ldr	r3, [pc, #80]	; (800023c <SPI2_GPIOInit+0x58>)
 80001ec:	607b      	str	r3, [r7, #4]
	SPIPins.GPIO_PinConfig.GPIO_PinMode = GPIO_MODE_ALT_FN;
 80001ee:	2302      	movs	r3, #2
 80001f0:	727b      	strb	r3, [r7, #9]
	SPIPins.GPIO_PinConfig.GPIO_PinAltFunMode = 5;
 80001f2:	2305      	movs	r3, #5
 80001f4:	737b      	strb	r3, [r7, #13]
	SPIPins.GPIO_PinConfig.GPIO_PinOPType = GPIO_OP_TYPE_PP;
 80001f6:	2300      	movs	r3, #0
 80001f8:	733b      	strb	r3, [r7, #12]
	SPIPins.GPIO_PinConfig.GPIO_PinPuPdControl = GPIO_NO_PUPD;
 80001fa:	2300      	movs	r3, #0
 80001fc:	72fb      	strb	r3, [r7, #11]
	SPIPins.GPIO_PinConfig.GPIO_PinSpeed = GPIO_SPEED_FAST;
 80001fe:	2302      	movs	r3, #2
 8000200:	72bb      	strb	r3, [r7, #10]

	// SCLK
	SPIPins.GPIO_PinConfig.GPIO_PinNumber = GPIO_PIN_NO_13;
 8000202:	230d      	movs	r3, #13
 8000204:	723b      	strb	r3, [r7, #8]
	GPIO_Init(&SPIPins);
 8000206:	1d3b      	adds	r3, r7, #4
 8000208:	4618      	mov	r0, r3
 800020a:	f000 f9a1 	bl	8000550 <GPIO_Init>

	// MOSI
	SPIPins.GPIO_PinConfig.GPIO_PinNumber = GPIO_PIN_NO_15;
 800020e:	230f      	movs	r3, #15
 8000210:	723b      	strb	r3, [r7, #8]
	GPIO_Init(&SPIPins);
 8000212:	1d3b      	adds	r3, r7, #4
 8000214:	4618      	mov	r0, r3
 8000216:	f000 f99b 	bl	8000550 <GPIO_Init>

	// MISO
	SPIPins.GPIO_PinConfig.GPIO_PinNumber = GPIO_PIN_NO_14;
 800021a:	230e      	movs	r3, #14
 800021c:	723b      	strb	r3, [r7, #8]
	GPIO_Init(&SPIPins);
 800021e:	1d3b      	adds	r3, r7, #4
 8000220:	4618      	mov	r0, r3
 8000222:	f000 f995 	bl	8000550 <GPIO_Init>

	// NSS
	SPIPins.GPIO_PinConfig.GPIO_PinNumber = GPIO_PIN_NO_12;
 8000226:	230c      	movs	r3, #12
 8000228:	723b      	strb	r3, [r7, #8]
	GPIO_Init(&SPIPins);
 800022a:	1d3b      	adds	r3, r7, #4
 800022c:	4618      	mov	r0, r3
 800022e:	f000 f98f 	bl	8000550 <GPIO_Init>
}
 8000232:	bf00      	nop
 8000234:	3710      	adds	r7, #16
 8000236:	46bd      	mov	sp, r7
 8000238:	bd80      	pop	{r7, pc}
 800023a:	bf00      	nop
 800023c:	48000400 	.word	0x48000400

08000240 <SPI2_Init>:

void SPI2_Init(void) {
 8000240:	b580      	push	{r7, lr}
 8000242:	b084      	sub	sp, #16
 8000244:	af00      	add	r7, sp, #0
	SPI_Handle_t SPI2Handle;

	SPI2Handle.pSPIx = SPI2;
 8000246:	4b0c      	ldr	r3, [pc, #48]	; (8000278 <SPI2_Init+0x38>)
 8000248:	607b      	str	r3, [r7, #4]
	SPI2Handle.SPIConfig.SPI_DeviceBusConfig = SPI_BUS_CONFIG_FD;
 800024a:	2301      	movs	r3, #1
 800024c:	727b      	strb	r3, [r7, #9]
	SPI2Handle.SPIConfig.SPI_DeviceMode = SPI_DEVICE_MODE_MASTER;
 800024e:	2301      	movs	r3, #1
 8000250:	723b      	strb	r3, [r7, #8]
	SPI2Handle.SPIConfig.SPI_SclkSpeed = SPI_SCLK_SPEED_DIV2; // generates sclk of 8Mhz
 8000252:	2300      	movs	r3, #0
 8000254:	72bb      	strb	r3, [r7, #10]
	SPI2Handle.SPIConfig.SPI_DFF = SPI_DFF_8BITS;
 8000256:	2300      	movs	r3, #0
 8000258:	72fb      	strb	r3, [r7, #11]
	SPI2Handle.SPIConfig.SPI_CPOL = SPI_CPOL_LOW;
 800025a:	2300      	movs	r3, #0
 800025c:	733b      	strb	r3, [r7, #12]
	SPI2Handle.SPIConfig.SPI_CPHA = SPI_CPHA_LOW;
 800025e:	2300      	movs	r3, #0
 8000260:	737b      	strb	r3, [r7, #13]
	SPI2Handle.SPIConfig.SPI_SSM = SPI_SSM_EN; // software slave management enabled for NSS pin
 8000262:	2301      	movs	r3, #1
 8000264:	73bb      	strb	r3, [r7, #14]

	SPI_Init(&SPI2Handle);
 8000266:	1d3b      	adds	r3, r7, #4
 8000268:	4618      	mov	r0, r3
 800026a:	f000 f8b1 	bl	80003d0 <SPI_Init>
}
 800026e:	bf00      	nop
 8000270:	3710      	adds	r7, #16
 8000272:	46bd      	mov	sp, r7
 8000274:	bd80      	pop	{r7, pc}
 8000276:	bf00      	nop
 8000278:	40003800 	.word	0x40003800

0800027c <main>:

int main(void) {
 800027c:	b590      	push	{r4, r7, lr}
 800027e:	b085      	sub	sp, #20
 8000280:	af00      	add	r7, sp, #0
	char user_data[] = "Hello world!";
 8000282:	4b0e      	ldr	r3, [pc, #56]	; (80002bc <main+0x40>)
 8000284:	463c      	mov	r4, r7
 8000286:	cb0f      	ldmia	r3, {r0, r1, r2, r3}
 8000288:	c407      	stmia	r4!, {r0, r1, r2}
 800028a:	7023      	strb	r3, [r4, #0]
	SPI2_GPIOInit();
 800028c:	f7ff ffaa 	bl	80001e4 <SPI2_GPIOInit>

	SPI2_Init();
 8000290:	f7ff ffd6 	bl	8000240 <SPI2_Init>

	// this makes  NSS signal
	SPI_SSIConfig(SPI2, ENABLE);
 8000294:	2101      	movs	r1, #1
 8000296:	480a      	ldr	r0, [pc, #40]	; (80002c0 <main+0x44>)
 8000298:	f000 f87e 	bl	8000398 <SPI_SSIConfig>

	// enable the SPI2 peripheral
	SPI_PeripheralControl(SPI2, ENABLE);
 800029c:	2101      	movs	r1, #1
 800029e:	4808      	ldr	r0, [pc, #32]	; (80002c0 <main+0x44>)
 80002a0:	f000 f939 	bl	8000516 <SPI_PeripheralControl>


	SPI_SendData(SPI2, (uint8_t*)user_data, strlen(user_data));
 80002a4:	463b      	mov	r3, r7
 80002a6:	4618      	mov	r0, r3
 80002a8:	f7ff ff94 	bl	80001d4 <strlen>
 80002ac:	4602      	mov	r2, r0
 80002ae:	463b      	mov	r3, r7
 80002b0:	4619      	mov	r1, r3
 80002b2:	4803      	ldr	r0, [pc, #12]	; (80002c0 <main+0x44>)
 80002b4:	f000 f8fb 	bl	80004ae <SPI_SendData>

	while(1);
 80002b8:	e7fe      	b.n	80002b8 <main+0x3c>
 80002ba:	bf00      	nop
 80002bc:	080009e0 	.word	0x080009e0
 80002c0:	40003800 	.word	0x40003800

080002c4 <Reset_Handler>:

  .section .text.Reset_Handler
  .weak Reset_Handler
  .type Reset_Handler, %function
Reset_Handler:
  ldr   r0, =_estack
 80002c4:	480d      	ldr	r0, [pc, #52]	; (80002fc <LoopForever+0x2>)
  mov   sp, r0          /* set stack pointer */
 80002c6:	4685      	mov	sp, r0
/* Call the clock system initialization function.*/
  bl  SystemInit
 80002c8:	f3af 8000 	nop.w

/* Copy the data segment initializers from flash to SRAM */
  ldr r0, =_sdata
 80002cc:	480c      	ldr	r0, [pc, #48]	; (8000300 <LoopForever+0x6>)
  ldr r1, =_edata
 80002ce:	490d      	ldr	r1, [pc, #52]	; (8000304 <LoopForever+0xa>)
  ldr r2, =_sidata
 80002d0:	4a0d      	ldr	r2, [pc, #52]	; (8000308 <LoopForever+0xe>)
  movs r3, #0
 80002d2:	2300      	movs	r3, #0
  b LoopCopyDataInit
 80002d4:	e002      	b.n	80002dc <LoopCopyDataInit>

080002d6 <CopyDataInit>:

CopyDataInit:
  ldr r4, [r2, r3]
 80002d6:	58d4      	ldr	r4, [r2, r3]
  str r4, [r0, r3]
 80002d8:	50c4      	str	r4, [r0, r3]
  adds r3, r3, #4
 80002da:	3304      	adds	r3, #4

080002dc <LoopCopyDataInit>:

LoopCopyDataInit:
  adds r4, r0, r3
 80002dc:	18c4      	adds	r4, r0, r3
  cmp r4, r1
 80002de:	428c      	cmp	r4, r1
  bcc CopyDataInit
 80002e0:	d3f9      	bcc.n	80002d6 <CopyDataInit>

/* Zero fill the bss segment. */
  ldr r2, =_sbss
 80002e2:	4a0a      	ldr	r2, [pc, #40]	; (800030c <LoopForever+0x12>)
  ldr r4, =_ebss
 80002e4:	4c0a      	ldr	r4, [pc, #40]	; (8000310 <LoopForever+0x16>)
  movs r3, #0
 80002e6:	2300      	movs	r3, #0
  b LoopFillZerobss
 80002e8:	e001      	b.n	80002ee <LoopFillZerobss>

080002ea <FillZerobss>:

FillZerobss:
  str  r3, [r2]
 80002ea:	6013      	str	r3, [r2, #0]
  adds r2, r2, #4
 80002ec:	3204      	adds	r2, #4

080002ee <LoopFillZerobss>:

LoopFillZerobss:
  cmp r2, r4
 80002ee:	42a2      	cmp	r2, r4
  bcc FillZerobss
 80002f0:	d3fb      	bcc.n	80002ea <FillZerobss>

/* Call static constructors */
  bl __libc_init_array
 80002f2:	f000 fb45 	bl	8000980 <__libc_init_array>
/* Call the application's entry point.*/
  bl main
 80002f6:	f7ff ffc1 	bl	800027c <main>

080002fa <LoopForever>:

LoopForever:
  b LoopForever
 80002fa:	e7fe      	b.n	80002fa <LoopForever>
  ldr   r0, =_estack
 80002fc:	2000a000 	.word	0x2000a000
  ldr r0, =_sdata
 8000300:	20000000 	.word	0x20000000
  ldr r1, =_edata
 8000304:	20000000 	.word	0x20000000
  ldr r2, =_sidata
 8000308:	080009f8 	.word	0x080009f8
  ldr r2, =_sbss
 800030c:	20000000 	.word	0x20000000
  ldr r4, =_ebss
 8000310:	2000001c 	.word	0x2000001c

08000314 <ADC1_2_IRQHandler>:
 * @retval : None
*/
  .section .text.Default_Handler,"ax",%progbits
Default_Handler:
Infinite_Loop:
  b Infinite_Loop
 8000314:	e7fe      	b.n	8000314 <ADC1_2_IRQHandler>
	...

08000318 <SPI_PeriClockControl>:
 */

// peripheral clock setup
#include "stm32f303xx_spi_driver.h"

void SPI_PeriClockControl(SPI_RegDef_t *pSPIx, uint8_t EnOrDi) {
 8000318:	b480      	push	{r7}
 800031a:	b083      	sub	sp, #12
 800031c:	af00      	add	r7, sp, #0
 800031e:	6078      	str	r0, [r7, #4]
 8000320:	460b      	mov	r3, r1
 8000322:	70fb      	strb	r3, [r7, #3]
	if (EnOrDi == ENABLE) {
 8000324:	78fb      	ldrb	r3, [r7, #3]
 8000326:	2b01      	cmp	r3, #1
 8000328:	d115      	bne.n	8000356 <SPI_PeriClockControl+0x3e>
	 	if (pSPIx == SPI1) {
 800032a:	687b      	ldr	r3, [r7, #4]
 800032c:	4a17      	ldr	r2, [pc, #92]	; (800038c <SPI_PeriClockControl+0x74>)
 800032e:	4293      	cmp	r3, r2
 8000330:	d106      	bne.n	8000340 <SPI_PeriClockControl+0x28>
			SPI1_PCLK_EN();
 8000332:	4b17      	ldr	r3, [pc, #92]	; (8000390 <SPI_PeriClockControl+0x78>)
 8000334:	699b      	ldr	r3, [r3, #24]
 8000336:	4a16      	ldr	r2, [pc, #88]	; (8000390 <SPI_PeriClockControl+0x78>)
 8000338:	f443 5380 	orr.w	r3, r3, #4096	; 0x1000
 800033c:	6193      	str	r3, [r2, #24]
			SPI1_PCLK_DI();
		} else if (pSPIx == SPI2) {
			SPI2_PCLK_DI();
		}
	}
}
 800033e:	e01f      	b.n	8000380 <SPI_PeriClockControl+0x68>
		} else if (pSPIx == SPI2) {
 8000340:	687b      	ldr	r3, [r7, #4]
 8000342:	4a14      	ldr	r2, [pc, #80]	; (8000394 <SPI_PeriClockControl+0x7c>)
 8000344:	4293      	cmp	r3, r2
 8000346:	d11b      	bne.n	8000380 <SPI_PeriClockControl+0x68>
			SPI2_PCLK_EN();
 8000348:	4b11      	ldr	r3, [pc, #68]	; (8000390 <SPI_PeriClockControl+0x78>)
 800034a:	69db      	ldr	r3, [r3, #28]
 800034c:	4a10      	ldr	r2, [pc, #64]	; (8000390 <SPI_PeriClockControl+0x78>)
 800034e:	f443 4380 	orr.w	r3, r3, #16384	; 0x4000
 8000352:	61d3      	str	r3, [r2, #28]
}
 8000354:	e014      	b.n	8000380 <SPI_PeriClockControl+0x68>
		if (pSPIx == SPI1) {
 8000356:	687b      	ldr	r3, [r7, #4]
 8000358:	4a0c      	ldr	r2, [pc, #48]	; (800038c <SPI_PeriClockControl+0x74>)
 800035a:	4293      	cmp	r3, r2
 800035c:	d106      	bne.n	800036c <SPI_PeriClockControl+0x54>
			SPI1_PCLK_DI();
 800035e:	4b0c      	ldr	r3, [pc, #48]	; (8000390 <SPI_PeriClockControl+0x78>)
 8000360:	699b      	ldr	r3, [r3, #24]
 8000362:	4a0b      	ldr	r2, [pc, #44]	; (8000390 <SPI_PeriClockControl+0x78>)
 8000364:	f423 5380 	bic.w	r3, r3, #4096	; 0x1000
 8000368:	6193      	str	r3, [r2, #24]
}
 800036a:	e009      	b.n	8000380 <SPI_PeriClockControl+0x68>
		} else if (pSPIx == SPI2) {
 800036c:	687b      	ldr	r3, [r7, #4]
 800036e:	4a09      	ldr	r2, [pc, #36]	; (8000394 <SPI_PeriClockControl+0x7c>)
 8000370:	4293      	cmp	r3, r2
 8000372:	d105      	bne.n	8000380 <SPI_PeriClockControl+0x68>
			SPI2_PCLK_DI();
 8000374:	4b06      	ldr	r3, [pc, #24]	; (8000390 <SPI_PeriClockControl+0x78>)
 8000376:	69db      	ldr	r3, [r3, #28]
 8000378:	4a05      	ldr	r2, [pc, #20]	; (8000390 <SPI_PeriClockControl+0x78>)
 800037a:	f423 4380 	bic.w	r3, r3, #16384	; 0x4000
 800037e:	61d3      	str	r3, [r2, #28]
}
 8000380:	bf00      	nop
 8000382:	370c      	adds	r7, #12
 8000384:	46bd      	mov	sp, r7
 8000386:	f85d 7b04 	ldr.w	r7, [sp], #4
 800038a:	4770      	bx	lr
 800038c:	40013000 	.word	0x40013000
 8000390:	40021000 	.word	0x40021000
 8000394:	40003800 	.word	0x40003800

08000398 <SPI_SSIConfig>:

void SPI_SSIConfig(SPI_RegDef_t *pSPI, uint8_t enOrDi) {
 8000398:	b480      	push	{r7}
 800039a:	b083      	sub	sp, #12
 800039c:	af00      	add	r7, sp, #0
 800039e:	6078      	str	r0, [r7, #4]
 80003a0:	460b      	mov	r3, r1
 80003a2:	70fb      	strb	r3, [r7, #3]
	if (enOrDi == ENABLE) {
 80003a4:	78fb      	ldrb	r3, [r7, #3]
 80003a6:	2b01      	cmp	r3, #1
 80003a8:	d106      	bne.n	80003b8 <SPI_SSIConfig+0x20>
		pSPI->CR1 |= (1 << SPI_CR1_SSI);
 80003aa:	687b      	ldr	r3, [r7, #4]
 80003ac:	681b      	ldr	r3, [r3, #0]
 80003ae:	f443 7280 	orr.w	r2, r3, #256	; 0x100
 80003b2:	687b      	ldr	r3, [r7, #4]
 80003b4:	601a      	str	r2, [r3, #0]
	} else {
		pSPI->CR1 &= ~(1 << SPI_CR1_SSI);
	}
}
 80003b6:	e005      	b.n	80003c4 <SPI_SSIConfig+0x2c>
		pSPI->CR1 &= ~(1 << SPI_CR1_SSI);
 80003b8:	687b      	ldr	r3, [r7, #4]
 80003ba:	681b      	ldr	r3, [r3, #0]
 80003bc:	f423 7280 	bic.w	r2, r3, #256	; 0x100
 80003c0:	687b      	ldr	r3, [r7, #4]
 80003c2:	601a      	str	r2, [r3, #0]
}
 80003c4:	bf00      	nop
 80003c6:	370c      	adds	r7, #12
 80003c8:	46bd      	mov	sp, r7
 80003ca:	f85d 7b04 	ldr.w	r7, [sp], #4
 80003ce:	4770      	bx	lr

080003d0 <SPI_Init>:

void SPI_Init(SPI_Handle_t *pSPIHandle) {
 80003d0:	b580      	push	{r7, lr}
 80003d2:	b084      	sub	sp, #16
 80003d4:	af00      	add	r7, sp, #0
 80003d6:	6078      	str	r0, [r7, #4]
	// peripheral clock enable
	SPI_PeriClockControl(pSPIHandle->pSPIx, ENABLE);
 80003d8:	687b      	ldr	r3, [r7, #4]
 80003da:	681b      	ldr	r3, [r3, #0]
 80003dc:	2101      	movs	r1, #1
 80003de:	4618      	mov	r0, r3
 80003e0:	f7ff ff9a 	bl	8000318 <SPI_PeriClockControl>
	// configure the SOU_CR1 register
	uint32_t tempReg = 0;
 80003e4:	2300      	movs	r3, #0
 80003e6:	60fb      	str	r3, [r7, #12]

	// 1. configure the device mode
	tempReg |= pSPIHandle->SPIConfig.SPI_DeviceMode << 2;
 80003e8:	687b      	ldr	r3, [r7, #4]
 80003ea:	791b      	ldrb	r3, [r3, #4]
 80003ec:	009b      	lsls	r3, r3, #2
 80003ee:	461a      	mov	r2, r3
 80003f0:	68fb      	ldr	r3, [r7, #12]
 80003f2:	4313      	orrs	r3, r2
 80003f4:	60fb      	str	r3, [r7, #12]

	// 2. configure the bus configuration
	if (pSPIHandle->SPIConfig.SPI_DeviceBusConfig == SPI_BUS_CONFIG_FD) {
 80003f6:	687b      	ldr	r3, [r7, #4]
 80003f8:	795b      	ldrb	r3, [r3, #5]
 80003fa:	2b01      	cmp	r3, #1
 80003fc:	d104      	bne.n	8000408 <SPI_Init+0x38>
		// bidirectional mode should be cleared
		tempReg &= ~(1 << SPI_CR1_BIDIMODE);
 80003fe:	68fb      	ldr	r3, [r7, #12]
 8000400:	f423 4300 	bic.w	r3, r3, #32768	; 0x8000
 8000404:	60fb      	str	r3, [r7, #12]
 8000406:	e014      	b.n	8000432 <SPI_Init+0x62>
	} else if (pSPIHandle->SPIConfig.SPI_DeviceBusConfig == SPI_BUS_CONFIG_HD) {
 8000408:	687b      	ldr	r3, [r7, #4]
 800040a:	795b      	ldrb	r3, [r3, #5]
 800040c:	2b02      	cmp	r3, #2
 800040e:	d104      	bne.n	800041a <SPI_Init+0x4a>
		// bidirectional mode should be set
		tempReg |= ~(1 << SPI_CR1_BIDIMODE);
 8000410:	68fb      	ldr	r3, [r7, #12]
 8000412:	f463 4300 	orn	r3, r3, #32768	; 0x8000
 8000416:	60fb      	str	r3, [r7, #12]
 8000418:	e00b      	b.n	8000432 <SPI_Init+0x62>
	} else if (pSPIHandle->SPIConfig.SPI_DeviceBusConfig == SPI_BUS_CONFIG_S_RXONLY) {
 800041a:	687b      	ldr	r3, [r7, #4]
 800041c:	795b      	ldrb	r3, [r3, #5]
 800041e:	2b03      	cmp	r3, #3
 8000420:	d107      	bne.n	8000432 <SPI_Init+0x62>
		// bidirectional mode should be cleared
		tempReg &= ~(1 << SPI_CR1_BIDIMODE);
 8000422:	68fb      	ldr	r3, [r7, #12]
 8000424:	f423 4300 	bic.w	r3, r3, #32768	; 0x8000
 8000428:	60fb      	str	r3, [r7, #12]
		// RXONLY bit must be set
		tempReg |= ~(1 << SPI_CR1_RXONLY);
 800042a:	68fb      	ldr	r3, [r7, #12]
 800042c:	f463 6380 	orn	r3, r3, #1024	; 0x400
 8000430:	60fb      	str	r3, [r7, #12]
	}

	// 3. configure the serial clock speed
	tempReg |= pSPIHandle->SPIConfig.SPI_SclkSpeed << SPI_CR1_BR;
 8000432:	687b      	ldr	r3, [r7, #4]
 8000434:	799b      	ldrb	r3, [r3, #6]
 8000436:	00db      	lsls	r3, r3, #3
 8000438:	461a      	mov	r2, r3
 800043a:	68fb      	ldr	r3, [r7, #12]
 800043c:	4313      	orrs	r3, r2
 800043e:	60fb      	str	r3, [r7, #12]

	// 4. configure the DFF
	tempReg |= pSPIHandle->SPIConfig.SPI_DFF << SPI_CR1_DFF;
 8000440:	687b      	ldr	r3, [r7, #4]
 8000442:	79db      	ldrb	r3, [r3, #7]
 8000444:	02db      	lsls	r3, r3, #11
 8000446:	461a      	mov	r2, r3
 8000448:	68fb      	ldr	r3, [r7, #12]
 800044a:	4313      	orrs	r3, r2
 800044c:	60fb      	str	r3, [r7, #12]

	// 5. configure the CPOL
	tempReg |= pSPIHandle->SPIConfig.SPI_CPOL << SPI_CR1_CPOL;
 800044e:	687b      	ldr	r3, [r7, #4]
 8000450:	7a1b      	ldrb	r3, [r3, #8]
 8000452:	005b      	lsls	r3, r3, #1
 8000454:	461a      	mov	r2, r3
 8000456:	68fb      	ldr	r3, [r7, #12]
 8000458:	4313      	orrs	r3, r2
 800045a:	60fb      	str	r3, [r7, #12]

	// 6. configure the CPHA
	tempReg |= pSPIHandle->SPIConfig.SPI_CPHA << SPI_CR1_CPHA;
 800045c:	687b      	ldr	r3, [r7, #4]
 800045e:	7a5b      	ldrb	r3, [r3, #9]
 8000460:	461a      	mov	r2, r3
 8000462:	68fb      	ldr	r3, [r7, #12]
 8000464:	4313      	orrs	r3, r2
 8000466:	60fb      	str	r3, [r7, #12]

	// 7. configure the SSM
	tempReg |= pSPIHandle->SPIConfig.SPI_SSM << SPI_CR1_SSM;
 8000468:	687b      	ldr	r3, [r7, #4]
 800046a:	7a9b      	ldrb	r3, [r3, #10]
 800046c:	025b      	lsls	r3, r3, #9
 800046e:	461a      	mov	r2, r3
 8000470:	68fb      	ldr	r3, [r7, #12]
 8000472:	4313      	orrs	r3, r2
 8000474:	60fb      	str	r3, [r7, #12]

	pSPIHandle->pSPIx->CR1 = tempReg;
 8000476:	687b      	ldr	r3, [r7, #4]
 8000478:	681b      	ldr	r3, [r3, #0]
 800047a:	68fa      	ldr	r2, [r7, #12]
 800047c:	601a      	str	r2, [r3, #0]
}
 800047e:	bf00      	nop
 8000480:	3710      	adds	r7, #16
 8000482:	46bd      	mov	sp, r7
 8000484:	bd80      	pop	{r7, pc}

08000486 <SPI_GetFlagStatus>:

void SPI_DeInit(SPI_RegDef_t *pSPIx) {

}

uint8_t SPI_GetFlagStatus(SPI_RegDef_t *pSPIx, uint32_t flagName) {
 8000486:	b480      	push	{r7}
 8000488:	b083      	sub	sp, #12
 800048a:	af00      	add	r7, sp, #0
 800048c:	6078      	str	r0, [r7, #4]
 800048e:	6039      	str	r1, [r7, #0]
	if (pSPIx->SR & flagName) {
 8000490:	687b      	ldr	r3, [r7, #4]
 8000492:	689a      	ldr	r2, [r3, #8]
 8000494:	683b      	ldr	r3, [r7, #0]
 8000496:	4013      	ands	r3, r2
 8000498:	2b00      	cmp	r3, #0
 800049a:	d001      	beq.n	80004a0 <SPI_GetFlagStatus+0x1a>
		return FLAG_SET;
 800049c:	2301      	movs	r3, #1
 800049e:	e000      	b.n	80004a2 <SPI_GetFlagStatus+0x1c>
	}

	return FLAG_RESET;
 80004a0:	2300      	movs	r3, #0
}
 80004a2:	4618      	mov	r0, r3
 80004a4:	370c      	adds	r7, #12
 80004a6:	46bd      	mov	sp, r7
 80004a8:	f85d 7b04 	ldr.w	r7, [sp], #4
 80004ac:	4770      	bx	lr

080004ae <SPI_SendData>:
// data send and receive
void SPI_SendData(SPI_RegDef_t *pSPIx, uint8_t *dataPtr, uint32_t length) {
 80004ae:	b580      	push	{r7, lr}
 80004b0:	b084      	sub	sp, #16
 80004b2:	af00      	add	r7, sp, #0
 80004b4:	60f8      	str	r0, [r7, #12]
 80004b6:	60b9      	str	r1, [r7, #8]
 80004b8:	607a      	str	r2, [r7, #4]
	while (length > 0) {
 80004ba:	e024      	b.n	8000506 <SPI_SendData+0x58>
		// 1. wait until data has come to the Tx register (Txe is set)
		while (SPI_GetFlagStatus(pSPIx, SPI_TXE_FLAG) == FLAG_RESET);
 80004bc:	bf00      	nop
 80004be:	2102      	movs	r1, #2
 80004c0:	68f8      	ldr	r0, [r7, #12]
 80004c2:	f7ff ffe0 	bl	8000486 <SPI_GetFlagStatus>
 80004c6:	4603      	mov	r3, r0
 80004c8:	2b00      	cmp	r3, #0
 80004ca:	d0f8      	beq.n	80004be <SPI_SendData+0x10>

		// 2. check the DFF bit in CR1
		if (pSPIx->CR1 & (1 << SPI_CR1_DFF)) {
 80004cc:	68fb      	ldr	r3, [r7, #12]
 80004ce:	681b      	ldr	r3, [r3, #0]
 80004d0:	f403 6300 	and.w	r3, r3, #2048	; 0x800
 80004d4:	2b00      	cmp	r3, #0
 80004d6:	d00b      	beq.n	80004f0 <SPI_SendData+0x42>
			// 16 bit data format
			// 1. load the data into the DR
			pSPIx->DR = *((uint16_t*) dataPtr);
 80004d8:	68bb      	ldr	r3, [r7, #8]
 80004da:	881b      	ldrh	r3, [r3, #0]
 80004dc:	461a      	mov	r2, r3
 80004de:	68fb      	ldr	r3, [r7, #12]
 80004e0:	60da      	str	r2, [r3, #12]
			length -= 2;
 80004e2:	687b      	ldr	r3, [r7, #4]
 80004e4:	3b02      	subs	r3, #2
 80004e6:	607b      	str	r3, [r7, #4]
			(uint16_t*) dataPtr++;
 80004e8:	68bb      	ldr	r3, [r7, #8]
 80004ea:	3301      	adds	r3, #1
 80004ec:	60bb      	str	r3, [r7, #8]
 80004ee:	e00a      	b.n	8000506 <SPI_SendData+0x58>
		} else {
			// 8 bit data format
			pSPIx->DR = *dataPtr;
 80004f0:	68bb      	ldr	r3, [r7, #8]
 80004f2:	781b      	ldrb	r3, [r3, #0]
 80004f4:	461a      	mov	r2, r3
 80004f6:	68fb      	ldr	r3, [r7, #12]
 80004f8:	60da      	str	r2, [r3, #12]
			length--;
 80004fa:	687b      	ldr	r3, [r7, #4]
 80004fc:	3b01      	subs	r3, #1
 80004fe:	607b      	str	r3, [r7, #4]
			dataPtr++;
 8000500:	68bb      	ldr	r3, [r7, #8]
 8000502:	3301      	adds	r3, #1
 8000504:	60bb      	str	r3, [r7, #8]
	while (length > 0) {
 8000506:	687b      	ldr	r3, [r7, #4]
 8000508:	2b00      	cmp	r3, #0
 800050a:	d1d7      	bne.n	80004bc <SPI_SendData+0xe>
		}
	}
}
 800050c:	bf00      	nop
 800050e:	bf00      	nop
 8000510:	3710      	adds	r7, #16
 8000512:	46bd      	mov	sp, r7
 8000514:	bd80      	pop	{r7, pc}

08000516 <SPI_PeripheralControl>:

void SPI_PeripheralControl(SPI_RegDef_t *pSPI, uint8_t enOrDi) {
 8000516:	b480      	push	{r7}
 8000518:	b083      	sub	sp, #12
 800051a:	af00      	add	r7, sp, #0
 800051c:	6078      	str	r0, [r7, #4]
 800051e:	460b      	mov	r3, r1
 8000520:	70fb      	strb	r3, [r7, #3]
	if (enOrDi == ENABLE) {
 8000522:	78fb      	ldrb	r3, [r7, #3]
 8000524:	2b01      	cmp	r3, #1
 8000526:	d106      	bne.n	8000536 <SPI_PeripheralControl+0x20>
		pSPI->CR1 |= (1 << SPI_CR1_SPE);
 8000528:	687b      	ldr	r3, [r7, #4]
 800052a:	681b      	ldr	r3, [r3, #0]
 800052c:	f043 0240 	orr.w	r2, r3, #64	; 0x40
 8000530:	687b      	ldr	r3, [r7, #4]
 8000532:	601a      	str	r2, [r3, #0]
	} else {
		pSPI->CR1 &= ~(1 << SPI_CR1_SPE);
	}
}
 8000534:	e005      	b.n	8000542 <SPI_PeripheralControl+0x2c>
		pSPI->CR1 &= ~(1 << SPI_CR1_SPE);
 8000536:	687b      	ldr	r3, [r7, #4]
 8000538:	681b      	ldr	r3, [r3, #0]
 800053a:	f023 0240 	bic.w	r2, r3, #64	; 0x40
 800053e:	687b      	ldr	r3, [r7, #4]
 8000540:	601a      	str	r2, [r3, #0]
}
 8000542:	bf00      	nop
 8000544:	370c      	adds	r7, #12
 8000546:	46bd      	mov	sp, r7
 8000548:	f85d 7b04 	ldr.w	r7, [sp], #4
 800054c:	4770      	bx	lr
	...

08000550 <GPIO_Init>:
 *      Author: kana
 */

#include "stm32f303xx_gpio_driver.h"

void GPIO_Init(GPIO_Handle_t *pGPIOHandle) {
 8000550:	b580      	push	{r7, lr}
 8000552:	b086      	sub	sp, #24
 8000554:	af00      	add	r7, sp, #0
 8000556:	6078      	str	r0, [r7, #4]
	uint32_t temp = 0;
 8000558:	2300      	movs	r3, #0
 800055a:	617b      	str	r3, [r7, #20]

	// enable the peripheral clock
	GPIO_PeriClockControl(pGPIOHandle->pGPIOX, ENABLE);
 800055c:	687b      	ldr	r3, [r7, #4]
 800055e:	681b      	ldr	r3, [r3, #0]
 8000560:	2101      	movs	r1, #1
 8000562:	4618      	mov	r0, r3
 8000564:	f000 f96e 	bl	8000844 <GPIO_PeriClockControl>

	if (pGPIOHandle->GPIO_PinConfig.GPIO_PinMode < GPIO_MODE_ANALOG && pGPIOHandle->GPIO_PinConfig.GPIO_PinMode >= GPIO_MODE_IN) {
 8000568:	687b      	ldr	r3, [r7, #4]
 800056a:	795b      	ldrb	r3, [r3, #5]
 800056c:	2b02      	cmp	r3, #2
 800056e:	d81f      	bhi.n	80005b0 <GPIO_Init+0x60>
		// non-interrupt mode
		temp = (pGPIOHandle->GPIO_PinConfig.GPIO_PinMode << (2 * pGPIOHandle->GPIO_PinConfig.GPIO_PinNumber)); // multiply by 2 because each pin takes 2 bit fields
 8000570:	687b      	ldr	r3, [r7, #4]
 8000572:	795b      	ldrb	r3, [r3, #5]
 8000574:	461a      	mov	r2, r3
 8000576:	687b      	ldr	r3, [r7, #4]
 8000578:	791b      	ldrb	r3, [r3, #4]
 800057a:	005b      	lsls	r3, r3, #1
 800057c:	fa02 f303 	lsl.w	r3, r2, r3
 8000580:	617b      	str	r3, [r7, #20]
		pGPIOHandle->pGPIOX->MODER &= ~(11 << pGPIOHandle->GPIO_PinConfig.GPIO_PinNumber);
 8000582:	687b      	ldr	r3, [r7, #4]
 8000584:	681b      	ldr	r3, [r3, #0]
 8000586:	681a      	ldr	r2, [r3, #0]
 8000588:	687b      	ldr	r3, [r7, #4]
 800058a:	791b      	ldrb	r3, [r3, #4]
 800058c:	4619      	mov	r1, r3
 800058e:	230b      	movs	r3, #11
 8000590:	408b      	lsls	r3, r1
 8000592:	43db      	mvns	r3, r3
 8000594:	4619      	mov	r1, r3
 8000596:	687b      	ldr	r3, [r7, #4]
 8000598:	681b      	ldr	r3, [r3, #0]
 800059a:	400a      	ands	r2, r1
 800059c:	601a      	str	r2, [r3, #0]
		pGPIOHandle->pGPIOX->MODER |= temp;
 800059e:	687b      	ldr	r3, [r7, #4]
 80005a0:	681b      	ldr	r3, [r3, #0]
 80005a2:	6819      	ldr	r1, [r3, #0]
 80005a4:	687b      	ldr	r3, [r7, #4]
 80005a6:	681b      	ldr	r3, [r3, #0]
 80005a8:	697a      	ldr	r2, [r7, #20]
 80005aa:	430a      	orrs	r2, r1
 80005ac:	601a      	str	r2, [r3, #0]
 80005ae:	e0a2      	b.n	80006f6 <GPIO_Init+0x1a6>
	} else {
		if (pGPIOHandle->GPIO_PinConfig.GPIO_PinMode == GPIO_MODE_IT_FT) {
 80005b0:	687b      	ldr	r3, [r7, #4]
 80005b2:	795b      	ldrb	r3, [r3, #5]
 80005b4:	2b04      	cmp	r3, #4
 80005b6:	d117      	bne.n	80005e8 <GPIO_Init+0x98>
			// 1. Configure the falling trigger selection register
			EXTI->FTSR1 |= (1 << pGPIOHandle->GPIO_PinConfig.GPIO_PinNumber);
 80005b8:	4b9a      	ldr	r3, [pc, #616]	; (8000824 <GPIO_Init+0x2d4>)
 80005ba:	68db      	ldr	r3, [r3, #12]
 80005bc:	687a      	ldr	r2, [r7, #4]
 80005be:	7912      	ldrb	r2, [r2, #4]
 80005c0:	4611      	mov	r1, r2
 80005c2:	2201      	movs	r2, #1
 80005c4:	408a      	lsls	r2, r1
 80005c6:	4611      	mov	r1, r2
 80005c8:	4a96      	ldr	r2, [pc, #600]	; (8000824 <GPIO_Init+0x2d4>)
 80005ca:	430b      	orrs	r3, r1
 80005cc:	60d3      	str	r3, [r2, #12]

			// clear the corresponding rtsr bit
			EXTI->RTSR1 &= ~(1 << pGPIOHandle->GPIO_PinConfig.GPIO_PinNumber);
 80005ce:	4b95      	ldr	r3, [pc, #596]	; (8000824 <GPIO_Init+0x2d4>)
 80005d0:	689b      	ldr	r3, [r3, #8]
 80005d2:	687a      	ldr	r2, [r7, #4]
 80005d4:	7912      	ldrb	r2, [r2, #4]
 80005d6:	4611      	mov	r1, r2
 80005d8:	2201      	movs	r2, #1
 80005da:	408a      	lsls	r2, r1
 80005dc:	43d2      	mvns	r2, r2
 80005de:	4611      	mov	r1, r2
 80005e0:	4a90      	ldr	r2, [pc, #576]	; (8000824 <GPIO_Init+0x2d4>)
 80005e2:	400b      	ands	r3, r1
 80005e4:	6093      	str	r3, [r2, #8]
 80005e6:	e035      	b.n	8000654 <GPIO_Init+0x104>
		} else if (pGPIOHandle->GPIO_PinConfig.GPIO_PinMode == GPIO_MODE_IT_RT) {
 80005e8:	687b      	ldr	r3, [r7, #4]
 80005ea:	795b      	ldrb	r3, [r3, #5]
 80005ec:	2b05      	cmp	r3, #5
 80005ee:	d117      	bne.n	8000620 <GPIO_Init+0xd0>
			// 1. Configure the raising trigger selection register
			EXTI->RTSR1 |= (1 << pGPIOHandle->GPIO_PinConfig.GPIO_PinNumber);
 80005f0:	4b8c      	ldr	r3, [pc, #560]	; (8000824 <GPIO_Init+0x2d4>)
 80005f2:	689b      	ldr	r3, [r3, #8]
 80005f4:	687a      	ldr	r2, [r7, #4]
 80005f6:	7912      	ldrb	r2, [r2, #4]
 80005f8:	4611      	mov	r1, r2
 80005fa:	2201      	movs	r2, #1
 80005fc:	408a      	lsls	r2, r1
 80005fe:	4611      	mov	r1, r2
 8000600:	4a88      	ldr	r2, [pc, #544]	; (8000824 <GPIO_Init+0x2d4>)
 8000602:	430b      	orrs	r3, r1
 8000604:	6093      	str	r3, [r2, #8]

			// clear the corresponding rtsr bit
			EXTI->FTSR1 &= ~(1 << pGPIOHandle->GPIO_PinConfig.GPIO_PinNumber);
 8000606:	4b87      	ldr	r3, [pc, #540]	; (8000824 <GPIO_Init+0x2d4>)
 8000608:	68db      	ldr	r3, [r3, #12]
 800060a:	687a      	ldr	r2, [r7, #4]
 800060c:	7912      	ldrb	r2, [r2, #4]
 800060e:	4611      	mov	r1, r2
 8000610:	2201      	movs	r2, #1
 8000612:	408a      	lsls	r2, r1
 8000614:	43d2      	mvns	r2, r2
 8000616:	4611      	mov	r1, r2
 8000618:	4a82      	ldr	r2, [pc, #520]	; (8000824 <GPIO_Init+0x2d4>)
 800061a:	400b      	ands	r3, r1
 800061c:	60d3      	str	r3, [r2, #12]
 800061e:	e019      	b.n	8000654 <GPIO_Init+0x104>
		} else if (pGPIOHandle->GPIO_PinConfig.GPIO_PinMode == GPIO_MODE_IT_RFT) {
 8000620:	687b      	ldr	r3, [r7, #4]
 8000622:	795b      	ldrb	r3, [r3, #5]
 8000624:	2b06      	cmp	r3, #6
 8000626:	d115      	bne.n	8000654 <GPIO_Init+0x104>
			// 1. Configure both falling and raising trigger selection registers
			EXTI->FTSR1 |= (1 << pGPIOHandle->GPIO_PinConfig.GPIO_PinNumber);
 8000628:	4b7e      	ldr	r3, [pc, #504]	; (8000824 <GPIO_Init+0x2d4>)
 800062a:	68db      	ldr	r3, [r3, #12]
 800062c:	687a      	ldr	r2, [r7, #4]
 800062e:	7912      	ldrb	r2, [r2, #4]
 8000630:	4611      	mov	r1, r2
 8000632:	2201      	movs	r2, #1
 8000634:	408a      	lsls	r2, r1
 8000636:	4611      	mov	r1, r2
 8000638:	4a7a      	ldr	r2, [pc, #488]	; (8000824 <GPIO_Init+0x2d4>)
 800063a:	430b      	orrs	r3, r1
 800063c:	60d3      	str	r3, [r2, #12]

			// clear the corresponding rtsr bit
			EXTI->RTSR1 |= (1 << pGPIOHandle->GPIO_PinConfig.GPIO_PinNumber);
 800063e:	4b79      	ldr	r3, [pc, #484]	; (8000824 <GPIO_Init+0x2d4>)
 8000640:	689b      	ldr	r3, [r3, #8]
 8000642:	687a      	ldr	r2, [r7, #4]
 8000644:	7912      	ldrb	r2, [r2, #4]
 8000646:	4611      	mov	r1, r2
 8000648:	2201      	movs	r2, #1
 800064a:	408a      	lsls	r2, r1
 800064c:	4611      	mov	r1, r2
 800064e:	4a75      	ldr	r2, [pc, #468]	; (8000824 <GPIO_Init+0x2d4>)
 8000650:	430b      	orrs	r3, r1
 8000652:	6093      	str	r3, [r2, #8]
		}

		// 2. Configure the GPIO port selection in SYSCFG_EXTICR
		uint8_t temp1 = pGPIOHandle->GPIO_PinConfig.GPIO_PinNumber / 4;
 8000654:	687b      	ldr	r3, [r7, #4]
 8000656:	791b      	ldrb	r3, [r3, #4]
 8000658:	089b      	lsrs	r3, r3, #2
 800065a:	74fb      	strb	r3, [r7, #19]
		uint8_t temp2 = pGPIOHandle->GPIO_PinConfig.GPIO_PinNumber % 4;
 800065c:	687b      	ldr	r3, [r7, #4]
 800065e:	791b      	ldrb	r3, [r3, #4]
 8000660:	f003 0303 	and.w	r3, r3, #3
 8000664:	74bb      	strb	r3, [r7, #18]
		uint8_t portcode = GPIO_BASEADDR_TO_CODE(pGPIOHandle->pGPIOX);
 8000666:	687b      	ldr	r3, [r7, #4]
 8000668:	681b      	ldr	r3, [r3, #0]
 800066a:	f1b3 4f90 	cmp.w	r3, #1207959552	; 0x48000000
 800066e:	d024      	beq.n	80006ba <GPIO_Init+0x16a>
 8000670:	687b      	ldr	r3, [r7, #4]
 8000672:	681b      	ldr	r3, [r3, #0]
 8000674:	4a6c      	ldr	r2, [pc, #432]	; (8000828 <GPIO_Init+0x2d8>)
 8000676:	4293      	cmp	r3, r2
 8000678:	d01d      	beq.n	80006b6 <GPIO_Init+0x166>
 800067a:	687b      	ldr	r3, [r7, #4]
 800067c:	681b      	ldr	r3, [r3, #0]
 800067e:	4a6b      	ldr	r2, [pc, #428]	; (800082c <GPIO_Init+0x2dc>)
 8000680:	4293      	cmp	r3, r2
 8000682:	d016      	beq.n	80006b2 <GPIO_Init+0x162>
 8000684:	687b      	ldr	r3, [r7, #4]
 8000686:	681b      	ldr	r3, [r3, #0]
 8000688:	4a69      	ldr	r2, [pc, #420]	; (8000830 <GPIO_Init+0x2e0>)
 800068a:	4293      	cmp	r3, r2
 800068c:	d00f      	beq.n	80006ae <GPIO_Init+0x15e>
 800068e:	687b      	ldr	r3, [r7, #4]
 8000690:	681b      	ldr	r3, [r3, #0]
 8000692:	4a68      	ldr	r2, [pc, #416]	; (8000834 <GPIO_Init+0x2e4>)
 8000694:	4293      	cmp	r3, r2
 8000696:	d008      	beq.n	80006aa <GPIO_Init+0x15a>
 8000698:	687b      	ldr	r3, [r7, #4]
 800069a:	681b      	ldr	r3, [r3, #0]
 800069c:	4a66      	ldr	r2, [pc, #408]	; (8000838 <GPIO_Init+0x2e8>)
 800069e:	4293      	cmp	r3, r2
 80006a0:	d101      	bne.n	80006a6 <GPIO_Init+0x156>
 80006a2:	2305      	movs	r3, #5
 80006a4:	e00a      	b.n	80006bc <GPIO_Init+0x16c>
 80006a6:	2300      	movs	r3, #0
 80006a8:	e008      	b.n	80006bc <GPIO_Init+0x16c>
 80006aa:	2304      	movs	r3, #4
 80006ac:	e006      	b.n	80006bc <GPIO_Init+0x16c>
 80006ae:	2303      	movs	r3, #3
 80006b0:	e004      	b.n	80006bc <GPIO_Init+0x16c>
 80006b2:	2302      	movs	r3, #2
 80006b4:	e002      	b.n	80006bc <GPIO_Init+0x16c>
 80006b6:	2301      	movs	r3, #1
 80006b8:	e000      	b.n	80006bc <GPIO_Init+0x16c>
 80006ba:	2300      	movs	r3, #0
 80006bc:	747b      	strb	r3, [r7, #17]
		SYSCFG_PCLK_EN();
 80006be:	4b5f      	ldr	r3, [pc, #380]	; (800083c <GPIO_Init+0x2ec>)
 80006c0:	699b      	ldr	r3, [r3, #24]
 80006c2:	4a5e      	ldr	r2, [pc, #376]	; (800083c <GPIO_Init+0x2ec>)
 80006c4:	f043 0301 	orr.w	r3, r3, #1
 80006c8:	6193      	str	r3, [r2, #24]
		SYSCFG->EXTICR[temp1] = portcode << (temp2 * 3);
 80006ca:	7c79      	ldrb	r1, [r7, #17]
 80006cc:	7cba      	ldrb	r2, [r7, #18]
 80006ce:	4613      	mov	r3, r2
 80006d0:	005b      	lsls	r3, r3, #1
 80006d2:	4413      	add	r3, r2
 80006d4:	4099      	lsls	r1, r3
 80006d6:	4a5a      	ldr	r2, [pc, #360]	; (8000840 <GPIO_Init+0x2f0>)
 80006d8:	7cfb      	ldrb	r3, [r7, #19]
 80006da:	009b      	lsls	r3, r3, #2
 80006dc:	4413      	add	r3, r2
 80006de:	6059      	str	r1, [r3, #4]

		// 3. enable the exti interrupt delivery using IMR (interrupt mask register)
		EXTI->IMR1 |= 1 << pGPIOHandle->GPIO_PinConfig.GPIO_PinNumber;
 80006e0:	4b50      	ldr	r3, [pc, #320]	; (8000824 <GPIO_Init+0x2d4>)
 80006e2:	681b      	ldr	r3, [r3, #0]
 80006e4:	687a      	ldr	r2, [r7, #4]
 80006e6:	7912      	ldrb	r2, [r2, #4]
 80006e8:	4611      	mov	r1, r2
 80006ea:	2201      	movs	r2, #1
 80006ec:	408a      	lsls	r2, r1
 80006ee:	4611      	mov	r1, r2
 80006f0:	4a4c      	ldr	r2, [pc, #304]	; (8000824 <GPIO_Init+0x2d4>)
 80006f2:	430b      	orrs	r3, r1
 80006f4:	6013      	str	r3, [r2, #0]
	}

	temp = (pGPIOHandle->GPIO_PinConfig.GPIO_PinSpeed << (2 * pGPIOHandle->GPIO_PinConfig.GPIO_PinNumber)); // multiply by 2 because each pin takes 2 bit fields
 80006f6:	687b      	ldr	r3, [r7, #4]
 80006f8:	799b      	ldrb	r3, [r3, #6]
 80006fa:	461a      	mov	r2, r3
 80006fc:	687b      	ldr	r3, [r7, #4]
 80006fe:	791b      	ldrb	r3, [r3, #4]
 8000700:	005b      	lsls	r3, r3, #1
 8000702:	fa02 f303 	lsl.w	r3, r2, r3
 8000706:	617b      	str	r3, [r7, #20]
	pGPIOHandle->pGPIOX->OSPEEDR &= ~(11 << pGPIOHandle->GPIO_PinConfig.GPIO_PinNumber);
 8000708:	687b      	ldr	r3, [r7, #4]
 800070a:	681b      	ldr	r3, [r3, #0]
 800070c:	689a      	ldr	r2, [r3, #8]
 800070e:	687b      	ldr	r3, [r7, #4]
 8000710:	791b      	ldrb	r3, [r3, #4]
 8000712:	4619      	mov	r1, r3
 8000714:	230b      	movs	r3, #11
 8000716:	408b      	lsls	r3, r1
 8000718:	43db      	mvns	r3, r3
 800071a:	4619      	mov	r1, r3
 800071c:	687b      	ldr	r3, [r7, #4]
 800071e:	681b      	ldr	r3, [r3, #0]
 8000720:	400a      	ands	r2, r1
 8000722:	609a      	str	r2, [r3, #8]
	pGPIOHandle->pGPIOX->OSPEEDR |= temp;
 8000724:	687b      	ldr	r3, [r7, #4]
 8000726:	681b      	ldr	r3, [r3, #0]
 8000728:	6899      	ldr	r1, [r3, #8]
 800072a:	687b      	ldr	r3, [r7, #4]
 800072c:	681b      	ldr	r3, [r3, #0]
 800072e:	697a      	ldr	r2, [r7, #20]
 8000730:	430a      	orrs	r2, r1
 8000732:	609a      	str	r2, [r3, #8]

	temp = (pGPIOHandle->GPIO_PinConfig.GPIO_PinPuPdControl << (2 * pGPIOHandle->GPIO_PinConfig.GPIO_PinNumber)); // multiply by 2 because each pin takes 2 bit fields
 8000734:	687b      	ldr	r3, [r7, #4]
 8000736:	79db      	ldrb	r3, [r3, #7]
 8000738:	461a      	mov	r2, r3
 800073a:	687b      	ldr	r3, [r7, #4]
 800073c:	791b      	ldrb	r3, [r3, #4]
 800073e:	005b      	lsls	r3, r3, #1
 8000740:	fa02 f303 	lsl.w	r3, r2, r3
 8000744:	617b      	str	r3, [r7, #20]
	pGPIOHandle->pGPIOX->PUPDR &= ~(11 << pGPIOHandle->GPIO_PinConfig.GPIO_PinNumber);
 8000746:	687b      	ldr	r3, [r7, #4]
 8000748:	681b      	ldr	r3, [r3, #0]
 800074a:	68da      	ldr	r2, [r3, #12]
 800074c:	687b      	ldr	r3, [r7, #4]
 800074e:	791b      	ldrb	r3, [r3, #4]
 8000750:	4619      	mov	r1, r3
 8000752:	230b      	movs	r3, #11
 8000754:	408b      	lsls	r3, r1
 8000756:	43db      	mvns	r3, r3
 8000758:	4619      	mov	r1, r3
 800075a:	687b      	ldr	r3, [r7, #4]
 800075c:	681b      	ldr	r3, [r3, #0]
 800075e:	400a      	ands	r2, r1
 8000760:	60da      	str	r2, [r3, #12]
	pGPIOHandle->pGPIOX->PUPDR |= temp;
 8000762:	687b      	ldr	r3, [r7, #4]
 8000764:	681b      	ldr	r3, [r3, #0]
 8000766:	68d9      	ldr	r1, [r3, #12]
 8000768:	687b      	ldr	r3, [r7, #4]
 800076a:	681b      	ldr	r3, [r3, #0]
 800076c:	697a      	ldr	r2, [r7, #20]
 800076e:	430a      	orrs	r2, r1
 8000770:	60da      	str	r2, [r3, #12]

	temp = (pGPIOHandle->GPIO_PinConfig.GPIO_PinPuPdControl << pGPIOHandle->GPIO_PinConfig.GPIO_PinNumber); // multiply by 2 because each pin takes 2 bit fields
 8000772:	687b      	ldr	r3, [r7, #4]
 8000774:	79db      	ldrb	r3, [r3, #7]
 8000776:	461a      	mov	r2, r3
 8000778:	687b      	ldr	r3, [r7, #4]
 800077a:	791b      	ldrb	r3, [r3, #4]
 800077c:	fa02 f303 	lsl.w	r3, r2, r3
 8000780:	617b      	str	r3, [r7, #20]
	pGPIOHandle->pGPIOX->MODER &= ~(1 << pGPIOHandle->GPIO_PinConfig.GPIO_PinNumber);
 8000782:	687b      	ldr	r3, [r7, #4]
 8000784:	681b      	ldr	r3, [r3, #0]
 8000786:	681a      	ldr	r2, [r3, #0]
 8000788:	687b      	ldr	r3, [r7, #4]
 800078a:	791b      	ldrb	r3, [r3, #4]
 800078c:	4619      	mov	r1, r3
 800078e:	2301      	movs	r3, #1
 8000790:	408b      	lsls	r3, r1
 8000792:	43db      	mvns	r3, r3
 8000794:	4619      	mov	r1, r3
 8000796:	687b      	ldr	r3, [r7, #4]
 8000798:	681b      	ldr	r3, [r3, #0]
 800079a:	400a      	ands	r2, r1
 800079c:	601a      	str	r2, [r3, #0]
	pGPIOHandle->pGPIOX->OTYPER |= temp;
 800079e:	687b      	ldr	r3, [r7, #4]
 80007a0:	681b      	ldr	r3, [r3, #0]
 80007a2:	6859      	ldr	r1, [r3, #4]
 80007a4:	687b      	ldr	r3, [r7, #4]
 80007a6:	681b      	ldr	r3, [r3, #0]
 80007a8:	697a      	ldr	r2, [r7, #20]
 80007aa:	430a      	orrs	r2, r1
 80007ac:	605a      	str	r2, [r3, #4]

	if (pGPIOHandle->GPIO_PinConfig.GPIO_PinMode == GPIO_MODE_ALT_FN) {
 80007ae:	687b      	ldr	r3, [r7, #4]
 80007b0:	795b      	ldrb	r3, [r3, #5]
 80007b2:	2b02      	cmp	r3, #2
 80007b4:	d132      	bne.n	800081c <GPIO_Init+0x2cc>
		// configure the alt function registers
		uint8_t temp1, temp2;
		temp1 = pGPIOHandle->GPIO_PinConfig.GPIO_PinNumber / 8;
 80007b6:	687b      	ldr	r3, [r7, #4]
 80007b8:	791b      	ldrb	r3, [r3, #4]
 80007ba:	08db      	lsrs	r3, r3, #3
 80007bc:	743b      	strb	r3, [r7, #16]
		temp2 = pGPIOHandle->GPIO_PinConfig.GPIO_PinNumber % 8;
 80007be:	687b      	ldr	r3, [r7, #4]
 80007c0:	791b      	ldrb	r3, [r3, #4]
 80007c2:	f003 0307 	and.w	r3, r3, #7
 80007c6:	73fb      	strb	r3, [r7, #15]
		pGPIOHandle->pGPIOX->AFR[temp1] &= ~(1111 << (4 * temp2));
 80007c8:	687b      	ldr	r3, [r7, #4]
 80007ca:	681b      	ldr	r3, [r3, #0]
 80007cc:	7c3a      	ldrb	r2, [r7, #16]
 80007ce:	3208      	adds	r2, #8
 80007d0:	f853 1022 	ldr.w	r1, [r3, r2, lsl #2]
 80007d4:	7bfb      	ldrb	r3, [r7, #15]
 80007d6:	009b      	lsls	r3, r3, #2
 80007d8:	f240 4257 	movw	r2, #1111	; 0x457
 80007dc:	fa02 f303 	lsl.w	r3, r2, r3
 80007e0:	43db      	mvns	r3, r3
 80007e2:	4618      	mov	r0, r3
 80007e4:	687b      	ldr	r3, [r7, #4]
 80007e6:	681b      	ldr	r3, [r3, #0]
 80007e8:	7c3a      	ldrb	r2, [r7, #16]
 80007ea:	4001      	ands	r1, r0
 80007ec:	3208      	adds	r2, #8
 80007ee:	f843 1022 	str.w	r1, [r3, r2, lsl #2]
		pGPIOHandle->pGPIOX->AFR[temp1] |= pGPIOHandle->GPIO_PinConfig.GPIO_PinAltFunMode << (4 * temp2);
 80007f2:	687b      	ldr	r3, [r7, #4]
 80007f4:	681b      	ldr	r3, [r3, #0]
 80007f6:	7c3a      	ldrb	r2, [r7, #16]
 80007f8:	3208      	adds	r2, #8
 80007fa:	f853 1022 	ldr.w	r1, [r3, r2, lsl #2]
 80007fe:	687b      	ldr	r3, [r7, #4]
 8000800:	7a5b      	ldrb	r3, [r3, #9]
 8000802:	461a      	mov	r2, r3
 8000804:	7bfb      	ldrb	r3, [r7, #15]
 8000806:	009b      	lsls	r3, r3, #2
 8000808:	fa02 f303 	lsl.w	r3, r2, r3
 800080c:	4618      	mov	r0, r3
 800080e:	687b      	ldr	r3, [r7, #4]
 8000810:	681b      	ldr	r3, [r3, #0]
 8000812:	7c3a      	ldrb	r2, [r7, #16]
 8000814:	4301      	orrs	r1, r0
 8000816:	3208      	adds	r2, #8
 8000818:	f843 1022 	str.w	r1, [r3, r2, lsl #2]
	}
}
 800081c:	bf00      	nop
 800081e:	3718      	adds	r7, #24
 8000820:	46bd      	mov	sp, r7
 8000822:	bd80      	pop	{r7, pc}
 8000824:	40010400 	.word	0x40010400
 8000828:	48000400 	.word	0x48000400
 800082c:	48000800 	.word	0x48000800
 8000830:	48000c00 	.word	0x48000c00
 8000834:	48001000 	.word	0x48001000
 8000838:	48001400 	.word	0x48001400
 800083c:	40021000 	.word	0x40021000
 8000840:	40010000 	.word	0x40010000

08000844 <GPIO_PeriClockControl>:
//
// @brief - this function enables or disables peripheral clock for the given GPIO port
// @pGPIOx -  base address of the GPIO peripheral
// @EnOrDi - ENABLE or DISABLE macros
//
void GPIO_PeriClockControl(GPIO_RegDef_t *pGPIOx, uint8_t EnOrDi) {
 8000844:	b480      	push	{r7}
 8000846:	b083      	sub	sp, #12
 8000848:	af00      	add	r7, sp, #0
 800084a:	6078      	str	r0, [r7, #4]
 800084c:	460b      	mov	r3, r1
 800084e:	70fb      	strb	r3, [r7, #3]
	if (EnOrDi == ENABLE) {
 8000850:	78fb      	ldrb	r3, [r7, #3]
 8000852:	2b01      	cmp	r3, #1
 8000854:	d141      	bne.n	80008da <GPIO_PeriClockControl+0x96>
		if (pGPIOx == GPIOA) {
 8000856:	687b      	ldr	r3, [r7, #4]
 8000858:	f1b3 4f90 	cmp.w	r3, #1207959552	; 0x48000000
 800085c:	d106      	bne.n	800086c <GPIO_PeriClockControl+0x28>
			GPIOA_PCLK_EN();
 800085e:	4b42      	ldr	r3, [pc, #264]	; (8000968 <GPIO_PeriClockControl+0x124>)
 8000860:	695b      	ldr	r3, [r3, #20]
 8000862:	4a41      	ldr	r2, [pc, #260]	; (8000968 <GPIO_PeriClockControl+0x124>)
 8000864:	f443 3300 	orr.w	r3, r3, #131072	; 0x20000
 8000868:	6153      	str	r3, [r2, #20]
			GPIOE_PCLK_DI();
		} else if (pGPIOx == GPIOF) {
			GPIOF_PCLK_DI();
		}
	}
}
 800086a:	e077      	b.n	800095c <GPIO_PeriClockControl+0x118>
		} else if (pGPIOx == GPIOB) {
 800086c:	687b      	ldr	r3, [r7, #4]
 800086e:	4a3f      	ldr	r2, [pc, #252]	; (800096c <GPIO_PeriClockControl+0x128>)
 8000870:	4293      	cmp	r3, r2
 8000872:	d106      	bne.n	8000882 <GPIO_PeriClockControl+0x3e>
			GPIOB_PCLK_EN();
 8000874:	4b3c      	ldr	r3, [pc, #240]	; (8000968 <GPIO_PeriClockControl+0x124>)
 8000876:	695b      	ldr	r3, [r3, #20]
 8000878:	4a3b      	ldr	r2, [pc, #236]	; (8000968 <GPIO_PeriClockControl+0x124>)
 800087a:	f443 2380 	orr.w	r3, r3, #262144	; 0x40000
 800087e:	6153      	str	r3, [r2, #20]
}
 8000880:	e06c      	b.n	800095c <GPIO_PeriClockControl+0x118>
		} else if (pGPIOx == GPIOC) {
 8000882:	687b      	ldr	r3, [r7, #4]
 8000884:	4a3a      	ldr	r2, [pc, #232]	; (8000970 <GPIO_PeriClockControl+0x12c>)
 8000886:	4293      	cmp	r3, r2
 8000888:	d106      	bne.n	8000898 <GPIO_PeriClockControl+0x54>
			GPIOC_PCLK_EN();
 800088a:	4b37      	ldr	r3, [pc, #220]	; (8000968 <GPIO_PeriClockControl+0x124>)
 800088c:	695b      	ldr	r3, [r3, #20]
 800088e:	4a36      	ldr	r2, [pc, #216]	; (8000968 <GPIO_PeriClockControl+0x124>)
 8000890:	f443 2300 	orr.w	r3, r3, #524288	; 0x80000
 8000894:	6153      	str	r3, [r2, #20]
}
 8000896:	e061      	b.n	800095c <GPIO_PeriClockControl+0x118>
		} else if (pGPIOx == GPIOD) {
 8000898:	687b      	ldr	r3, [r7, #4]
 800089a:	4a36      	ldr	r2, [pc, #216]	; (8000974 <GPIO_PeriClockControl+0x130>)
 800089c:	4293      	cmp	r3, r2
 800089e:	d106      	bne.n	80008ae <GPIO_PeriClockControl+0x6a>
			GPIOD_PCLK_EN();
 80008a0:	4b31      	ldr	r3, [pc, #196]	; (8000968 <GPIO_PeriClockControl+0x124>)
 80008a2:	695b      	ldr	r3, [r3, #20]
 80008a4:	4a30      	ldr	r2, [pc, #192]	; (8000968 <GPIO_PeriClockControl+0x124>)
 80008a6:	f443 1380 	orr.w	r3, r3, #1048576	; 0x100000
 80008aa:	6153      	str	r3, [r2, #20]
}
 80008ac:	e056      	b.n	800095c <GPIO_PeriClockControl+0x118>
		} else if (pGPIOx == GPIOE) {
 80008ae:	687b      	ldr	r3, [r7, #4]
 80008b0:	4a31      	ldr	r2, [pc, #196]	; (8000978 <GPIO_PeriClockControl+0x134>)
 80008b2:	4293      	cmp	r3, r2
 80008b4:	d106      	bne.n	80008c4 <GPIO_PeriClockControl+0x80>
			GPIOE_PCLK_EN();
 80008b6:	4b2c      	ldr	r3, [pc, #176]	; (8000968 <GPIO_PeriClockControl+0x124>)
 80008b8:	695b      	ldr	r3, [r3, #20]
 80008ba:	4a2b      	ldr	r2, [pc, #172]	; (8000968 <GPIO_PeriClockControl+0x124>)
 80008bc:	f443 1300 	orr.w	r3, r3, #2097152	; 0x200000
 80008c0:	6153      	str	r3, [r2, #20]
}
 80008c2:	e04b      	b.n	800095c <GPIO_PeriClockControl+0x118>
		} else if (pGPIOx == GPIOF) {
 80008c4:	687b      	ldr	r3, [r7, #4]
 80008c6:	4a2d      	ldr	r2, [pc, #180]	; (800097c <GPIO_PeriClockControl+0x138>)
 80008c8:	4293      	cmp	r3, r2
 80008ca:	d147      	bne.n	800095c <GPIO_PeriClockControl+0x118>
			GPIOF_PCLK_EN();
 80008cc:	4b26      	ldr	r3, [pc, #152]	; (8000968 <GPIO_PeriClockControl+0x124>)
 80008ce:	695b      	ldr	r3, [r3, #20]
 80008d0:	4a25      	ldr	r2, [pc, #148]	; (8000968 <GPIO_PeriClockControl+0x124>)
 80008d2:	f443 0380 	orr.w	r3, r3, #4194304	; 0x400000
 80008d6:	6153      	str	r3, [r2, #20]
}
 80008d8:	e040      	b.n	800095c <GPIO_PeriClockControl+0x118>
		if (pGPIOx == GPIOA) {
 80008da:	687b      	ldr	r3, [r7, #4]
 80008dc:	f1b3 4f90 	cmp.w	r3, #1207959552	; 0x48000000
 80008e0:	d106      	bne.n	80008f0 <GPIO_PeriClockControl+0xac>
			GPIOA_PCLK_DI();
 80008e2:	4b21      	ldr	r3, [pc, #132]	; (8000968 <GPIO_PeriClockControl+0x124>)
 80008e4:	695b      	ldr	r3, [r3, #20]
 80008e6:	4a20      	ldr	r2, [pc, #128]	; (8000968 <GPIO_PeriClockControl+0x124>)
 80008e8:	f423 3300 	bic.w	r3, r3, #131072	; 0x20000
 80008ec:	6153      	str	r3, [r2, #20]
}
 80008ee:	e035      	b.n	800095c <GPIO_PeriClockControl+0x118>
		} else if (pGPIOx == GPIOB) {
 80008f0:	687b      	ldr	r3, [r7, #4]
 80008f2:	4a1e      	ldr	r2, [pc, #120]	; (800096c <GPIO_PeriClockControl+0x128>)
 80008f4:	4293      	cmp	r3, r2
 80008f6:	d106      	bne.n	8000906 <GPIO_PeriClockControl+0xc2>
			GPIOB_PCLK_DI();
 80008f8:	4b1b      	ldr	r3, [pc, #108]	; (8000968 <GPIO_PeriClockControl+0x124>)
 80008fa:	695b      	ldr	r3, [r3, #20]
 80008fc:	4a1a      	ldr	r2, [pc, #104]	; (8000968 <GPIO_PeriClockControl+0x124>)
 80008fe:	f423 2380 	bic.w	r3, r3, #262144	; 0x40000
 8000902:	6153      	str	r3, [r2, #20]
}
 8000904:	e02a      	b.n	800095c <GPIO_PeriClockControl+0x118>
		} else if (pGPIOx == GPIOC) {
 8000906:	687b      	ldr	r3, [r7, #4]
 8000908:	4a19      	ldr	r2, [pc, #100]	; (8000970 <GPIO_PeriClockControl+0x12c>)
 800090a:	4293      	cmp	r3, r2
 800090c:	d106      	bne.n	800091c <GPIO_PeriClockControl+0xd8>
			GPIOC_PCLK_DI();
 800090e:	4b16      	ldr	r3, [pc, #88]	; (8000968 <GPIO_PeriClockControl+0x124>)
 8000910:	695b      	ldr	r3, [r3, #20]
 8000912:	4a15      	ldr	r2, [pc, #84]	; (8000968 <GPIO_PeriClockControl+0x124>)
 8000914:	f423 2300 	bic.w	r3, r3, #524288	; 0x80000
 8000918:	6153      	str	r3, [r2, #20]
}
 800091a:	e01f      	b.n	800095c <GPIO_PeriClockControl+0x118>
		} else if (pGPIOx == GPIOD) {
 800091c:	687b      	ldr	r3, [r7, #4]
 800091e:	4a15      	ldr	r2, [pc, #84]	; (8000974 <GPIO_PeriClockControl+0x130>)
 8000920:	4293      	cmp	r3, r2
 8000922:	d106      	bne.n	8000932 <GPIO_PeriClockControl+0xee>
			GPIOD_PCLK_DI();
 8000924:	4b10      	ldr	r3, [pc, #64]	; (8000968 <GPIO_PeriClockControl+0x124>)
 8000926:	695b      	ldr	r3, [r3, #20]
 8000928:	4a0f      	ldr	r2, [pc, #60]	; (8000968 <GPIO_PeriClockControl+0x124>)
 800092a:	f423 1380 	bic.w	r3, r3, #1048576	; 0x100000
 800092e:	6153      	str	r3, [r2, #20]
}
 8000930:	e014      	b.n	800095c <GPIO_PeriClockControl+0x118>
		} else if (pGPIOx == GPIOE) {
 8000932:	687b      	ldr	r3, [r7, #4]
 8000934:	4a10      	ldr	r2, [pc, #64]	; (8000978 <GPIO_PeriClockControl+0x134>)
 8000936:	4293      	cmp	r3, r2
 8000938:	d106      	bne.n	8000948 <GPIO_PeriClockControl+0x104>
			GPIOE_PCLK_DI();
 800093a:	4b0b      	ldr	r3, [pc, #44]	; (8000968 <GPIO_PeriClockControl+0x124>)
 800093c:	695b      	ldr	r3, [r3, #20]
 800093e:	4a0a      	ldr	r2, [pc, #40]	; (8000968 <GPIO_PeriClockControl+0x124>)
 8000940:	f423 1300 	bic.w	r3, r3, #2097152	; 0x200000
 8000944:	6153      	str	r3, [r2, #20]
}
 8000946:	e009      	b.n	800095c <GPIO_PeriClockControl+0x118>
		} else if (pGPIOx == GPIOF) {
 8000948:	687b      	ldr	r3, [r7, #4]
 800094a:	4a0c      	ldr	r2, [pc, #48]	; (800097c <GPIO_PeriClockControl+0x138>)
 800094c:	4293      	cmp	r3, r2
 800094e:	d105      	bne.n	800095c <GPIO_PeriClockControl+0x118>
			GPIOF_PCLK_DI();
 8000950:	4b05      	ldr	r3, [pc, #20]	; (8000968 <GPIO_PeriClockControl+0x124>)
 8000952:	695b      	ldr	r3, [r3, #20]
 8000954:	4a04      	ldr	r2, [pc, #16]	; (8000968 <GPIO_PeriClockControl+0x124>)
 8000956:	f423 0380 	bic.w	r3, r3, #4194304	; 0x400000
 800095a:	6153      	str	r3, [r2, #20]
}
 800095c:	bf00      	nop
 800095e:	370c      	adds	r7, #12
 8000960:	46bd      	mov	sp, r7
 8000962:	f85d 7b04 	ldr.w	r7, [sp], #4
 8000966:	4770      	bx	lr
 8000968:	40021000 	.word	0x40021000
 800096c:	48000400 	.word	0x48000400
 8000970:	48000800 	.word	0x48000800
 8000974:	48000c00 	.word	0x48000c00
 8000978:	48001000 	.word	0x48001000
 800097c:	48001400 	.word	0x48001400

08000980 <__libc_init_array>:
 8000980:	b570      	push	{r4, r5, r6, lr}
 8000982:	4d0d      	ldr	r5, [pc, #52]	; (80009b8 <__libc_init_array+0x38>)
 8000984:	4c0d      	ldr	r4, [pc, #52]	; (80009bc <__libc_init_array+0x3c>)
 8000986:	1b64      	subs	r4, r4, r5
 8000988:	10a4      	asrs	r4, r4, #2
 800098a:	2600      	movs	r6, #0
 800098c:	42a6      	cmp	r6, r4
 800098e:	d109      	bne.n	80009a4 <__libc_init_array+0x24>
 8000990:	4d0b      	ldr	r5, [pc, #44]	; (80009c0 <__libc_init_array+0x40>)
 8000992:	4c0c      	ldr	r4, [pc, #48]	; (80009c4 <__libc_init_array+0x44>)
 8000994:	f000 f818 	bl	80009c8 <_init>
 8000998:	1b64      	subs	r4, r4, r5
 800099a:	10a4      	asrs	r4, r4, #2
 800099c:	2600      	movs	r6, #0
 800099e:	42a6      	cmp	r6, r4
 80009a0:	d105      	bne.n	80009ae <__libc_init_array+0x2e>
 80009a2:	bd70      	pop	{r4, r5, r6, pc}
 80009a4:	f855 3b04 	ldr.w	r3, [r5], #4
 80009a8:	4798      	blx	r3
 80009aa:	3601      	adds	r6, #1
 80009ac:	e7ee      	b.n	800098c <__libc_init_array+0xc>
 80009ae:	f855 3b04 	ldr.w	r3, [r5], #4
 80009b2:	4798      	blx	r3
 80009b4:	3601      	adds	r6, #1
 80009b6:	e7f2      	b.n	800099e <__libc_init_array+0x1e>
 80009b8:	080009f0 	.word	0x080009f0
 80009bc:	080009f0 	.word	0x080009f0
 80009c0:	080009f0 	.word	0x080009f0
 80009c4:	080009f4 	.word	0x080009f4

080009c8 <_init>:
 80009c8:	b5f8      	push	{r3, r4, r5, r6, r7, lr}
 80009ca:	bf00      	nop
 80009cc:	bcf8      	pop	{r3, r4, r5, r6, r7}
 80009ce:	bc08      	pop	{r3}
 80009d0:	469e      	mov	lr, r3
 80009d2:	4770      	bx	lr

080009d4 <_fini>:
 80009d4:	b5f8      	push	{r3, r4, r5, r6, r7, lr}
 80009d6:	bf00      	nop
 80009d8:	bcf8      	pop	{r3, r4, r5, r6, r7}
 80009da:	bc08      	pop	{r3}
 80009dc:	469e      	mov	lr, r3
 80009de:	4770      	bx	lr
